target datalayout = "e-m:e-p270:32:32-p271:32:32-p272:64:64-i64:64-i128:128-f80:128-n8:16:32:64-S128"
target triple = "x86_64-pc-linux-gnu"

%struct.timeval = type { i64, i64 }
%struct.event = type { %struct.event_callback, %union.anon.1, i32, ptr, %union.anon.3, i16, i16, %struct.timeval }
%struct.event_callback = type { %struct.anon.0, i16, i8, i8, %union.anon, ptr }
%struct.anon.0 = type { ptr, ptr }
%union.anon = type { ptr }
%union.anon.1 = type { %struct.anon.2 }
%struct.anon.2 = type { ptr, ptr }
%union.anon.3 = type { %struct.anon.4 }
%struct.anon.4 = type { %struct.anon.5, %struct.timeval }
%struct.anon.5 = type { ptr, ptr }
%struct.conn = type { ptr, i32, i8, i8, i8, i8, i8, i8, i8, i8, ptr, i32, i32, i32, %struct.event, i16, i16, ptr, ptr, i32, i32, ptr, ptr, ptr, i32, ptr, i32, i32, i32, i32, i32, i32, i32, %struct.sockaddr_in6, i32, i8, %struct.anon.9, %union.protocol_binary_request_header, i64, i64, i16, i32, i32, ptr, ptr, ptr, ptr, ptr, ptr }
%struct.sockaddr_in6 = type { i16, i16, i32, %struct.in6_addr, i32 }
%struct.in6_addr = type { %union.anon.8 }
%union.anon.8 = type { [4 x i32] }
%struct.anon.9 = type { ptr, i64, i64 }
%union.protocol_binary_request_header = type { %struct.anon.10 }
%struct.anon.10 = type { i8, i8, i16, i8, i8, i16, i32, i32, i64 }
%struct.sockaddr_un = type { i16, [108 x i8] }
%struct.sockaddr_in = type { i16, i16, %struct.in_addr, [8 x i8] }
%struct.in_addr = type { i32 }

@.str.387 = private unnamed_addr constant [2 x i8] c"?\00", align 1
@.str.388 = private unnamed_addr constant [4 x i8] c"udp\00", align 1
@.str.389 = private unnamed_addr constant [4 x i8] c"tcp\00", align 1
@.str.390 = private unnamed_addr constant [2 x i8] c"]\00", align 1
@.str.391 = private unnamed_addr constant [5 x i8] c"udp6\00", align 1
@.str.392 = private unnamed_addr constant [5 x i8] c"tcp6\00", align 1
@.str.393 = private unnamed_addr constant [5 x i8] c"unix\00", align 1
@.str.394 = private unnamed_addr constant [8 x i8] c"<AF %d>\00", align 1
@.str.395 = private unnamed_addr constant [9 x i8] c"%s:%s:%u\00", align 1
@.str.396 = private unnamed_addr constant [6 x i8] c"%s:%s\00", align 1

; Function Attrs: inlinehint nounwind uwtable
define internal zeroext i16 @__bswap_16(i16 noundef zeroext %0) #14 {
  %2 = alloca i16, align 2
  store i16 %0, ptr %2, align 2, !tbaa !79
  %3 = load i16, ptr %2, align 2, !tbaa !79
  %4 = zext i16 %3 to i32
  %5 = ashr i32 %4, 8
  %6 = and i32 %5, 255
  %7 = load i16, ptr %2, align 2, !tbaa !79
  %8 = zext i16 %7 to i32
  %9 = and i32 %8, 255
  %10 = shl i32 %9, 8
  %11 = or i32 %6, %10
  %12 = trunc i32 %11 to i16
  ret i16 %12
}

; Function Attrs: inlinehint nounwind uwtable
define internal void @get_conn_text(ptr noundef %0, i32 noundef %1, ptr noundef %2, ptr noundef %3) #14 {
  %5 = alloca ptr, align 8
  %6 = alloca i32, align 4
  %7 = alloca ptr, align 8
  %8 = alloca ptr, align 8
  %9 = alloca [4096 x i8], align 16
  %10 = alloca ptr, align 8
  %11 = alloca i16, align 2
  %12 = alloca i64, align 8
  store ptr %0, ptr %5, align 8, !tbaa !10
  store i32 %1, ptr %6, align 4, !tbaa !8
  store ptr %2, ptr %7, align 8, !tbaa !29
  store ptr %3, ptr %8, align 8, !tbaa !324
  call void @llvm.lifetime.start.p0(i64 4096, ptr %9) #15
  %13 = getelementptr inbounds [4096 x i8], ptr %9, i64 0, i64 0
  store i8 0, ptr %13, align 16, !tbaa !61
  call void @llvm.lifetime.start.p0(i64 8, ptr %10) #15
  store ptr @.str.387, ptr %10, align 8, !tbaa !29
  call void @llvm.lifetime.start.p0(i64 2, ptr %11) #15
  store i16 0, ptr %11, align 2, !tbaa !79
  %14 = load i32, ptr %6, align 4, !tbaa !8
  switch i32 %14, label %66 [
    i32 2, label %15
    i32 10, label %30
    i32 1, label %53
  ]

15:                                               ; preds = %4
  %16 = load i32, ptr %6, align 4, !tbaa !8
  %17 = load ptr, ptr %8, align 8, !tbaa !324
  %18 = getelementptr inbounds nuw %struct.sockaddr_in, ptr %17, i32 0, i32 2
  %19 = getelementptr inbounds [4096 x i8], ptr %9, i64 0, i64 0
  %20 = call ptr @inet_ntop(i32 noundef %16, ptr noundef %18, ptr noundef %19, i32 noundef 4095) #15
  %21 = load ptr, ptr %8, align 8, !tbaa !324
  %22 = getelementptr inbounds nuw %struct.sockaddr_in, ptr %21, i32 0, i32 1
  %23 = load i16, ptr %22, align 2, !tbaa !397
  %24 = call zeroext i16 @__bswap_16(i16 noundef zeroext %23)
  store i16 %24, ptr %11, align 2, !tbaa !79
  %25 = load ptr, ptr %5, align 8, !tbaa !10
  %26 = getelementptr inbounds nuw %struct.conn, ptr %25, i32 0, i32 30
  %27 = load i32, ptr %26, align 8, !tbaa !69
  %28 = icmp eq i32 %27, 2
  %29 = select i1 %28, ptr @.str.388, ptr @.str.389
  store ptr %29, ptr %10, align 8, !tbaa !29
  br label %66

30:                                               ; preds = %4
  %31 = getelementptr inbounds [4096 x i8], ptr %9, i64 0, i64 0
  store i8 91, ptr %31, align 16, !tbaa !61
  %32 = getelementptr inbounds [4096 x i8], ptr %9, i64 0, i64 1
  store i8 0, ptr %32, align 1, !tbaa !61
  %33 = load i32, ptr %6, align 4, !tbaa !8
  %34 = load ptr, ptr %8, align 8, !tbaa !324
  %35 = getelementptr inbounds nuw %struct.sockaddr_in6, ptr %34, i32 0, i32 3
  %36 = getelementptr inbounds [4096 x i8], ptr %9, i64 0, i64 0
  %37 = getelementptr inbounds i8, ptr %36, i64 1
  %38 = call ptr @inet_ntop(i32 noundef %33, ptr noundef %35, ptr noundef %37, i32 noundef 4094) #15
  %39 = icmp ne ptr %38, null
  br i1 %39, label %40, label %43

40:                                               ; preds = %30
  %41 = getelementptr inbounds [4096 x i8], ptr %9, i64 0, i64 0
  %42 = call ptr @strncat(ptr noundef %41, ptr noundef @.str.390, i64 noundef 2) #15
  br label %43

43:                                               ; preds = %40, %30
  %44 = load ptr, ptr %8, align 8, !tbaa !324
  %45 = getelementptr inbounds nuw %struct.sockaddr_in6, ptr %44, i32 0, i32 1
  %46 = load i16, ptr %45, align 2, !tbaa !400
  %47 = call zeroext i16 @__bswap_16(i16 noundef zeroext %46)
  store i16 %47, ptr %11, align 2, !tbaa !79
  %48 = load ptr, ptr %5, align 8, !tbaa !10
  %49 = getelementptr inbounds nuw %struct.conn, ptr %48, i32 0, i32 30
  %50 = load i32, ptr %49, align 8, !tbaa !69
  %51 = icmp eq i32 %50, 2
  %52 = select i1 %51, ptr @.str.391, ptr @.str.392
  store ptr %52, ptr %10, align 8, !tbaa !29
  br label %66

53:                                               ; preds = %4
  call void @llvm.lifetime.start.p0(i64 8, ptr %12) #15
  store i64 0, ptr %12, align 8, !tbaa !4
  store i64 108, ptr %12, align 8, !tbaa !4
  %54 = load i64, ptr %12, align 8, !tbaa !4
  %55 = icmp ule i64 4096, %54
  br i1 %55, label %56, label %57

56:                                               ; preds = %53
  store i64 4095, ptr %12, align 8, !tbaa !4
  br label %57

57:                                               ; preds = %56, %53
  %58 = getelementptr inbounds [4096 x i8], ptr %9, i64 0, i64 0
  %59 = load ptr, ptr %8, align 8, !tbaa !324
  %60 = getelementptr inbounds nuw %struct.sockaddr_un, ptr %59, i32 0, i32 1
  %61 = getelementptr inbounds [108 x i8], ptr %60, i64 0, i64 0
  %62 = load i64, ptr %12, align 8, !tbaa !4
  %63 = call ptr @strncpy(ptr noundef %58, ptr noundef %61, i64 noundef %62) #15
  %64 = load i64, ptr %12, align 8, !tbaa !4
  %65 = getelementptr inbounds nuw [4096 x i8], ptr %9, i64 0, i64 %64
  store i8 0, ptr %65, align 1, !tbaa !61
  store ptr @.str.393, ptr %10, align 8, !tbaa !29
  call void @llvm.lifetime.end.p0(i64 8, ptr %12) #15
  br label %66

66:                                               ; preds = %4, %57, %43, %15
  %67 = getelementptr inbounds [4096 x i8], ptr %9, i64 0, i64 0
  %68 = call i64 @strlen(ptr noundef %67) #18
  %69 = icmp ult i64 %68, 2
  br i1 %69, label %70, label %74

70:                                               ; preds = %66
  %71 = getelementptr inbounds [4096 x i8], ptr %9, i64 0, i64 0
  %72 = load i32, ptr %6, align 4, !tbaa !8
  %73 = call i32 (ptr, i64, ptr, ...) @snprintf(ptr noundef %71, i64 noundef 4096, ptr noundef @.str.394, i32 noundef %72) #15
  br label %74

74:                                               ; preds = %70, %66
  %75 = load i16, ptr %11, align 2, !tbaa !79
  %76 = icmp ne i16 %75, 0
  br i1 %76, label %77, label %84

77:                                               ; preds = %74
  %78 = load ptr, ptr %7, align 8, !tbaa !29
  %79 = load ptr, ptr %10, align 8, !tbaa !29
  %80 = getelementptr inbounds [4096 x i8], ptr %9, i64 0, i64 0
  %81 = load i16, ptr %11, align 2, !tbaa !79
  %82 = zext i16 %81 to i32
  %83 = call i32 (ptr, i64, ptr, ...) @snprintf(ptr noundef %78, i64 noundef 4107, ptr noundef @.str.395, ptr noundef %79, ptr noundef %80, i32 noundef %82) #15
  br label %89

84:                                               ; preds = %74
  %85 = load ptr, ptr %7, align 8, !tbaa !29
  %86 = load ptr, ptr %10, align 8, !tbaa !29
  %87 = getelementptr inbounds [4096 x i8], ptr %9, i64 0, i64 0
  %88 = call i32 (ptr, i64, ptr, ...) @snprintf(ptr noundef %85, i64 noundef 4107, ptr noundef @.str.396, ptr noundef %86, ptr noundef %87) #15
  br label %89

89:                                               ; preds = %84, %77
  call void @llvm.lifetime.end.p0(i64 2, ptr %11) #15
  call void @llvm.lifetime.end.p0(i64 8, ptr %10) #15
  call void @llvm.lifetime.end.p0(i64 4096, ptr %9) #15
  ret void
}