; Function Attrs: inlinehint nounwind uwtable
define internal fastcc void @get_conn_text(ptr noundef nonnull readonly captures(none) %0, i32 noundef range(i32 0, 65536) %1, ptr noundef nonnull writeonly captures(none) %2, ptr noundef nonnull %3) unnamed_addr #28 {
  %5 = alloca [4096 x i8], align 16
  call void @llvm.lifetime.start.p0(i64 4096, ptr nonnull %5) #34
  store i8 0, ptr %5, align 16, !tbaa !76
  %trunc = trunc nuw i32 %1 to i16
  switch i16 %trunc, label %31 [
    i16 2, label %6
    i16 10, label %15
    i16 1, label %27
  ]

6:                                                ; preds = %4
  %7 = getelementptr inbounds nuw i8, ptr %3, i64 4
  %8 = call ptr @inet_ntop(i32 noundef 2, ptr noundef nonnull %7, ptr noundef nonnull %5, i32 noundef 4095) #34
  %9 = getelementptr inbounds nuw i8, ptr %3, i64 2
  %10 = load i16, ptr %9, align 2, !tbaa !371
  %rev.i = call noundef i16 @llvm.bswap.i16(i16 %10)
  %11 = getelementptr inbounds nuw i8, ptr %0, i64 264
  %12 = load i32, ptr %11, align 8, !tbaa !65
  %13 = icmp eq i32 %12, 2
  %14 = select i1 %13, ptr @.str.388, ptr @.str.389
  br label %31

15:                                               ; preds = %4
  store i8 91, ptr %5, align 16, !tbaa !76
  %16 = getelementptr inbounds nuw i8, ptr %5, i64 1
  store i8 0, ptr %16, align 1, !tbaa !76
  %17 = getelementptr inbounds nuw i8, ptr %3, i64 8
  %18 = call ptr @inet_ntop(i32 noundef 10, ptr noundef nonnull %17, ptr noundef nonnull %16, i32 noundef 4094) #34
  %.not = icmp eq ptr %18, null
  br i1 %.not, label %20, label %19

19:                                               ; preds = %15
  %strlen = call i64 @strlen(ptr nonnull dereferenceable(1) %5)
  %endptr = getelementptr inbounds i8, ptr %5, i64 %strlen
  store i16 93, ptr %endptr, align 1
  br label %20

20:                                               ; preds = %19, %15
  %21 = getelementptr inbounds nuw i8, ptr %3, i64 2
  %22 = load i16, ptr %21, align 2, !tbaa !374
  %rev.i22 = call noundef i16 @llvm.bswap.i16(i16 %22)
  %23 = getelementptr inbounds nuw i8, ptr %0, i64 264
  %24 = load i32, ptr %23, align 8, !tbaa !65
  %25 = icmp eq i32 %24, 2
  %26 = select i1 %25, ptr @.str.391, ptr @.str.392
  br label %31

27:                                               ; preds = %4
  %28 = getelementptr inbounds nuw i8, ptr %3, i64 2
  %29 = call ptr @strncpy(ptr noundef nonnull dereferenceable(1) %5, ptr noundef nonnull dereferenceable(1) %28, i64 noundef 108) #34
  %30 = getelementptr inbounds nuw i8, ptr %5, i64 108
  store i8 0, ptr %30, align 4, !tbaa !76
  br label %31

31:                                               ; preds = %27, %20, %6, %4
  %.019 = phi i16 [ 0, %4 ], [ 0, %27 ], [ %rev.i22, %20 ], [ %rev.i, %6 ]
  %.0 = phi ptr [ @.str.387, %4 ], [ @.str.393, %27 ], [ %26, %20 ], [ %14, %6 ]
  %32 = call i64 @strlen(ptr noundef nonnull dereferenceable(1) %5) #42
  %33 = icmp ult i64 %32, 2
  br i1 %33, label %34, label %36

34:                                               ; preds = %31
  %35 = call i32 (ptr, i64, ptr, ...) @snprintf(ptr noundef nonnull dereferenceable(1) %5, i64 noundef 4096, ptr noundef nonnull @.str.394, i32 noundef %1) #34
  br label %36

36:                                               ; preds = %34, %31
  %.not21 = icmp eq i16 %.019, 0
  br i1 %.not21, label %40, label %37

37:                                               ; preds = %36
  %38 = zext i16 %.019 to i32
  %39 = call i32 (ptr, i64, ptr, ...) @snprintf(ptr noundef nonnull dereferenceable(1) %2, i64 noundef 4107, ptr noundef nonnull @.str.395, ptr noundef nonnull %.0, ptr noundef nonnull %5, i32 noundef %38) #34
  br label %42

40:                                               ; preds = %36
  %41 = call i32 (ptr, i64, ptr, ...) @snprintf(ptr noundef nonnull dereferenceable(1) %2, i64 noundef 4107, ptr noundef nonnull @.str.396, ptr noundef nonnull %.0, ptr noundef nonnull %5) #34
  br label %42

42:                                               ; preds = %40, %37
  call void @llvm.lifetime.end.p0(i64 4096, ptr nonnull %5) #34
  ret void
}